; Function Attrs: mustprogress uwtable
define hidden void @_ZNK19OpenColorIO_v2_4dev27GradingPrimaryTransformImpl18createEditableCopyEv(ptr noalias nocapture writeonly sret(%"class.std::shared_ptr.11") align 8 %agg.result, ptr noundef nonnull align 8 dereferenceable(200) %this) unnamed_addr #0 align 2 personality ptr @__gxx_personality_v0 {
entry:
  %transform = alloca %"class.std::shared_ptr", align 8
  %vtable = load ptr, ptr %this, align 8
  %vfn = getelementptr inbounds i8, ptr %vtable, i64 80
  %0 = load ptr, ptr %vfn, align 8
  %call = tail call noundef i32 %0(ptr noundef nonnull align 8 dereferenceable(200) %this) #13
  call void @_ZN19OpenColorIO_v2_4dev23GradingPrimaryTransform6CreateENS_12GradingStyleE(ptr nonnull sret(%"class.std::shared_ptr") align 8 %transform, i32 noundef %call)
  %m_data.i = getelementptr inbounds i8, ptr %this, i64 8
  %1 = load ptr, ptr %transform, align 8, !nonnull !4, !noundef !4
  %2 = tail call ptr @__dynamic_cast(ptr nonnull %1, ptr nonnull @_ZTIN19OpenColorIO_v2_4dev23GradingPrimaryTransformE, ptr nonnull @_ZTIN19OpenColorIO_v2_4dev27GradingPrimaryTransformImplE, i64 0) #13
  %m_data.i1 = getelementptr inbounds i8, ptr %2, i64 8
  %call5 = invoke noundef nonnull align 8 dereferenceable(192) ptr @_ZN19OpenColorIO_v2_4dev20GradingPrimaryOpDataaSERKS0_(ptr noundef nonnull align 8 dereferenceable(192) %m_data.i1, ptr noundef nonnull align 8 dereferenceable(192) %m_data.i)
          to label %_ZNSt10shared_ptrIN19OpenColorIO_v2_4dev23GradingPrimaryTransformEED2Ev.exit unwind label %lpad

_ZNSt10shared_ptrIN19OpenColorIO_v2_4dev23GradingPrimaryTransformEED2Ev.exit: ; preds = %entry
  store ptr %1, ptr %agg.result, align 8
  %_M_refcount.i.i = getelementptr inbounds i8, ptr %agg.result, i64 8
  %_M_refcount4.i.i = getelementptr inbounds i8, ptr %transform, i64 8
  %3 = load ptr, ptr %_M_refcount4.i.i, align 8
  store ptr %3, ptr %_M_refcount.i.i, align 8
  ret void

lpad:                                             ; preds = %entry
  %4 = landingpad { ptr, i32 }
          cleanup
  call void @_ZNSt10shared_ptrIN19OpenColorIO_v2_4dev23GradingPrimaryTransformEED2Ev(ptr noundef nonnull align 8 dereferenceable(16) %transform) #13
  resume { ptr, i32 } %4
}